; Function Attrs: nounwind uwtable
define noalias noundef ptr @Abc_NtkHaigCollectMembers(ptr noundef readonly captures(none) %0) local_unnamed_addr #0 {
  %2 = tail call noalias dereferenceable_or_null(16) ptr @malloc(i64 noundef 16) #9
  %3 = getelementptr inbounds nuw i8, ptr %2, i64 4
  store i32 0, ptr %3, align 4, !tbaa !3
  store i32 4098, ptr %2, align 8, !tbaa !9
  %4 = tail call noalias dereferenceable_or_null(32784) ptr @malloc(i64 noundef 32784) #9
  %5 = getelementptr inbounds nuw i8, ptr %2, i64 8
  store ptr %4, ptr %5, align 8, !tbaa !10
  %6 = getelementptr inbounds nuw i8, ptr %0, i64 16
  %7 = load ptr, ptr %6, align 8, !tbaa !11
  %8 = getelementptr i8, ptr %7, i64 4
  %.val11 = load i32, ptr %8, align 4, !tbaa !3
  %9 = icmp sgt i32 %.val11, 0
  br i1 %9, label %.lr.ph, label %.critedge

.lr.ph:                                           ; preds = %1, %46
  %10 = phi ptr [ %47, %46 ], [ %7, %1 ]
  %11 = phi i32 [ %48, %46 ], [ 4098, %1 ]
  %12 = phi i32 [ %49, %46 ], [ 0, %1 ]
  %indvars.iv = phi i64 [ %indvars.iv.next, %46 ], [ 0, %1 ]
  %13 = getelementptr i8, ptr %10, i64 8
  %.val10 = load ptr, ptr %13, align 8, !tbaa !10
  %14 = getelementptr inbounds nuw ptr, ptr %.val10, i64 %indvars.iv
  %15 = load ptr, ptr %14, align 8, !tbaa !18
  %16 = load ptr, ptr %15, align 8, !tbaa !19
  %17 = icmp eq ptr %16, null
  br i1 %17, label %46, label %18

18:                                               ; preds = %.lr.ph
  %19 = tail call ptr @Hop_ObjRepr(ptr noundef nonnull %15) #10
  store ptr %19, ptr %15, align 8, !tbaa !19
  %20 = icmp eq i32 %12, %11
  br i1 %20, label %21, label %.Vec_PtrGrow.exit11_crit_edge.i

.Vec_PtrGrow.exit11_crit_edge.i:                  ; preds = %18
  %.pre.i = load ptr, ptr %5, align 8, !tbaa !10
  br label %Vec_PtrPush.exit

21:                                               ; preds = %18
  %22 = icmp slt i32 %11, 16
  br i1 %22, label %23, label %30

23:                                               ; preds = %21
  %24 = load ptr, ptr %5, align 8, !tbaa !10
  %.not9.i.i = icmp eq ptr %24, null
  br i1 %.not9.i.i, label %27, label %25

25:                                               ; preds = %23
  %26 = tail call dereferenceable_or_null(128) ptr @realloc(ptr noundef nonnull %24, i64 noundef 128) #11
  br label %Vec_PtrGrow.exit.i

27:                                               ; preds = %23
  %28 = tail call noalias dereferenceable_or_null(128) ptr @malloc(i64 noundef 128) #9
  br label %Vec_PtrGrow.exit.i

Vec_PtrGrow.exit.i:                               ; preds = %27, %25
  %29 = phi ptr [ %26, %25 ], [ %28, %27 ]
  store ptr %29, ptr %5, align 8, !tbaa !10
  store i32 16, ptr %2, align 8, !tbaa !9
  br label %Vec_PtrPush.exit

30:                                               ; preds = %21
  %31 = shl nuw nsw i32 %11, 1
  %32 = load ptr, ptr %5, align 8, !tbaa !10
  %.not9.i10.i = icmp eq ptr %32, null
  %33 = zext nneg i32 %31 to i64
  %34 = shl nuw nsw i64 %33, 3
  br i1 %.not9.i10.i, label %37, label %35

35:                                               ; preds = %30
  %36 = tail call ptr @realloc(ptr noundef nonnull %32, i64 noundef %34) #11
  br label %39

37:                                               ; preds = %30
  %38 = tail call noalias ptr @malloc(i64 noundef %34) #9
  br label %39

39:                                               ; preds = %37, %35
  %40 = phi ptr [ %36, %35 ], [ %38, %37 ]
  store ptr %40, ptr %5, align 8, !tbaa !10
  store i32 %31, ptr %2, align 8, !tbaa !9
  br label %Vec_PtrPush.exit

Vec_PtrPush.exit:                                 ; preds = %.Vec_PtrGrow.exit11_crit_edge.i, %Vec_PtrGrow.exit.i, %39
  %41 = phi i32 [ %11, %.Vec_PtrGrow.exit11_crit_edge.i ], [ %31, %39 ], [ 16, %Vec_PtrGrow.exit.i ]
  %42 = phi ptr [ %.pre.i, %.Vec_PtrGrow.exit11_crit_edge.i ], [ %40, %39 ], [ %29, %Vec_PtrGrow.exit.i ]
  %43 = add nsw i32 %12, 1
  store i32 %43, ptr %3, align 4, !tbaa !3
  %44 = sext i32 %12 to i64
  %45 = getelementptr inbounds ptr, ptr %42, i64 %44
  store ptr %15, ptr %45, align 8, !tbaa !18
  %.pre = load ptr, ptr %6, align 8, !tbaa !11
  br label %46

46:                                               ; preds = %.lr.ph, %Vec_PtrPush.exit
  %47 = phi ptr [ %10, %.lr.ph ], [ %.pre, %Vec_PtrPush.exit ]
  %48 = phi i32 [ %11, %.lr.ph ], [ %41, %Vec_PtrPush.exit ]
  %49 = phi i32 [ %12, %.lr.ph ], [ %43, %Vec_PtrPush.exit ]
  %indvars.iv.next = add nuw nsw i64 %indvars.iv, 1
  %50 = getelementptr i8, ptr %47, i64 4
  %.val = load i32, ptr %50, align 4, !tbaa !3
  %51 = sext i32 %.val to i64
  %52 = icmp slt i64 %indvars.iv.next, %51
  br i1 %52, label %.lr.ph, label %.critedge, !llvm.loop !20

.critedge:                                        ; preds = %46, %1
  ret ptr %2
}